target datalayout = "e-m:e-p270:32:32-p271:32:32-p272:64:64-i64:64-i128:128-f80:128-n8:16:32:64-S128"
target triple = "x86_64-pc-linux-gnu"

%struct.k12_t = type { i32, i32, ptr, ptr, ptr, i32, ptr, i32, %struct.Buffer }
%struct.Buffer = type { ptr, i64, i64, i64 }

; Function Attrs: null_pointer_is_valid sspstrong uwtable
define internal void @destroy_k12_file_data(ptr noundef %0) #0 {
  %2 = alloca ptr, align 8
  store ptr %0, ptr %2, align 8
  %3 = load ptr, ptr %2, align 8
  %4 = getelementptr inbounds nuw %struct.k12_t, ptr %3, i32 0, i32 2
  %5 = load ptr, ptr %4, align 8
  call void @g_hash_table_destroy(ptr noundef %5)
  %6 = load ptr, ptr %2, align 8
  %7 = getelementptr inbounds nuw %struct.k12_t, ptr %6, i32 0, i32 3
  %8 = load ptr, ptr %7, align 8
  %9 = call i32 @g_hash_table_foreach_remove(ptr noundef %8, ptr noundef @destroy_srcdsc, ptr noundef null)
  %10 = load ptr, ptr %2, align 8
  %11 = getelementptr inbounds nuw %struct.k12_t, ptr %10, i32 0, i32 3
  %12 = load ptr, ptr %11, align 8
  call void @g_hash_table_destroy(ptr noundef %12)
  %13 = load ptr, ptr %2, align 8
  %14 = getelementptr inbounds nuw %struct.k12_t, ptr %13, i32 0, i32 8
  call void @ws_buffer_free(ptr noundef %14)
  %15 = load ptr, ptr %2, align 8
  %16 = getelementptr inbounds nuw %struct.k12_t, ptr %15, i32 0, i32 4
  %17 = load ptr, ptr %16, align 8
  call void @g_free(ptr noundef %17)
  %18 = load ptr, ptr %2, align 8
  %19 = getelementptr inbounds nuw %struct.k12_t, ptr %18, i32 0, i32 6
  %20 = load ptr, ptr %19, align 8
  call void @g_free(ptr noundef %20)
  %21 = load ptr, ptr %2, align 8
  call void @g_free(ptr noundef %21)
  ret void
}