; Function Attrs: null_pointer_is_valid sspstrong uwtable
define internal fastcc void @destroy_k12_file_data(ptr noundef %0) unnamed_addr #0 {
  %2 = getelementptr inbounds nuw i8, ptr %0, i64 8
  %3 = load ptr, ptr %2, align 8
  tail call void @g_hash_table_destroy(ptr noundef %3)
  %4 = getelementptr inbounds nuw i8, ptr %0, i64 16
  %5 = load ptr, ptr %4, align 8
  %6 = tail call i32 @g_hash_table_foreach_remove(ptr noundef %5, ptr noundef nonnull @destroy_srcdsc, ptr noundef null)
  %7 = load ptr, ptr %4, align 8
  tail call void @g_hash_table_destroy(ptr noundef %7)
  %8 = getelementptr inbounds nuw i8, ptr %0, i64 56
  tail call void @ws_buffer_free(ptr noundef nonnull %8)
  %9 = getelementptr inbounds nuw i8, ptr %0, i64 24
  %10 = load ptr, ptr %9, align 8
  tail call void @g_free(ptr noundef %10)
  %11 = getelementptr inbounds nuw i8, ptr %0, i64 40
  %12 = load ptr, ptr %11, align 8
  tail call void @g_free(ptr noundef %12)
  tail call void @g_free(ptr noundef %0)
  ret void
}